target datalayout = "e-m:e-p270:32:32-p271:32:32-p272:64:64-i64:64-i128:128-f80:128-n8:16:32:64-S128"
target triple = "x86_64-pc-linux-gnu"

@unicode_cc_index = internal constant [87 x i8] c"M\03\00\97\05 \C6\05\00\E7\06\00E\07\00\9C\08\00M\09\00<\0B\00=\0D\006\0F\008\10 :\19\00\CB\1A \D3\1C\00\CF\1D\00\E2 \00.0 +\A9 \ED\AB\009\0A\01Q\0F\01s\11\01u\13\01+\17!?\1C!\9E\BC!\08\E0\01D\E9\01K\E9\01", align 16

; Function Attrs: nounwind uwtable
define internal i32 @get_le24(ptr noundef %0) #0 {
  %2 = alloca ptr, align 8
  store ptr %0, ptr %2, align 8
  %3 = load ptr, ptr %2, align 8
  %4 = load i16, ptr %3, align 2
  %5 = zext i16 %4 to i32
  %6 = load ptr, ptr %2, align 8
  %7 = getelementptr i8, ptr %6, i64 2
  %8 = load i8, ptr %7, align 1
  %9 = zext i8 %8 to i32
  %10 = shl i32 %9, 16
  %11 = or i32 %5, %10
  ret i32 %11
}

; Function Attrs: nounwind uwtable
define internal i32 @get_index_pos(ptr noundef %0, i32 noundef %1, ptr noundef %2, i32 noundef %3) #0 {
  %5 = alloca i32, align 4
  %6 = alloca ptr, align 8
  %7 = alloca i32, align 4
  %8 = alloca ptr, align 8
  %9 = alloca i32, align 4
  %10 = alloca i32, align 4
  %11 = alloca i32, align 4
  %12 = alloca i32, align 4
  %13 = alloca i32, align 4
  %14 = alloca i32, align 4
  store ptr %0, ptr %6, align 8
  store i32 %1, ptr %7, align 4
  store ptr %2, ptr %8, align 8
  store i32 %3, ptr %9, align 4
  store i32 0, ptr %12, align 4
  %15 = load ptr, ptr %8, align 8
  %16 = call i32 @get_le24(ptr noundef %15)
  store i32 %16, ptr %11, align 4
  %17 = load i32, ptr %11, align 4
  %18 = and i32 %17, 2097151
  store i32 %18, ptr %10, align 4
  %19 = load i32, ptr %7, align 4
  %20 = load i32, ptr %10, align 4
  %21 = icmp ult i32 %19, %20
  br i1 %21, label %22, label %24

22:                                               ; preds = %4
  %23 = load ptr, ptr %6, align 8
  store i32 0, ptr %23, align 4
  store i32 0, ptr %5, align 4
  br label %80

24:                                               ; preds = %4
  %25 = load i32, ptr %9, align 4
  %26 = sub i32 %25, 1
  store i32 %26, ptr %13, align 4
  %27 = load ptr, ptr %8, align 8
  %28 = load i32, ptr %13, align 4
  %29 = mul i32 %28, 3
  %30 = sext i32 %29 to i64
  %31 = getelementptr i8, ptr %27, i64 %30
  %32 = call i32 @get_le24(ptr noundef %31)
  store i32 %32, ptr %10, align 4
  %33 = load i32, ptr %7, align 4
  %34 = load i32, ptr %10, align 4
  %35 = icmp uge i32 %33, %34
  br i1 %35, label %36, label %37

36:                                               ; preds = %24
  store i32 -1, ptr %5, align 4
  br label %80

37:                                               ; preds = %24
  br label %38

38:                                               ; preds = %63, %37
  %39 = load i32, ptr %13, align 4
  %40 = load i32, ptr %12, align 4
  %41 = sub i32 %39, %40
  %42 = icmp sgt i32 %41, 1
  br i1 %42, label %43, label %64

43:                                               ; preds = %38
  %44 = load i32, ptr %13, align 4
  %45 = load i32, ptr %12, align 4
  %46 = add i32 %44, %45
  %47 = sdiv i32 %46, 2
  store i32 %47, ptr %14, align 4
  %48 = load ptr, ptr %8, align 8
  %49 = load i32, ptr %14, align 4
  %50 = mul i32 %49, 3
  %51 = sext i32 %50 to i64
  %52 = getelementptr i8, ptr %48, i64 %51
  %53 = call i32 @get_le24(ptr noundef %52)
  store i32 %53, ptr %11, align 4
  %54 = load i32, ptr %11, align 4
  %55 = and i32 %54, 2097151
  store i32 %55, ptr %10, align 4
  %56 = load i32, ptr %7, align 4
  %57 = load i32, ptr %10, align 4
  %58 = icmp ult i32 %56, %57
  br i1 %58, label %59, label %61

59:                                               ; preds = %43
  %60 = load i32, ptr %14, align 4
  store i32 %60, ptr %13, align 4
  br label %63

61:                                               ; preds = %43
  %62 = load i32, ptr %14, align 4
  store i32 %62, ptr %12, align 4
  br label %63

63:                                               ; preds = %61, %59
  br label %38, !llvm.loop !35

64:                                               ; preds = %38
  %65 = load ptr, ptr %8, align 8
  %66 = load i32, ptr %12, align 4
  %67 = mul i32 %66, 3
  %68 = sext i32 %67 to i64
  %69 = getelementptr i8, ptr %65, i64 %68
  %70 = call i32 @get_le24(ptr noundef %69)
  store i32 %70, ptr %11, align 4
  %71 = load i32, ptr %11, align 4
  %72 = and i32 %71, 2097151
  %73 = load ptr, ptr %6, align 8
  store i32 %72, ptr %73, align 4
  %74 = load i32, ptr %12, align 4
  %75 = add i32 %74, 1
  %76 = mul i32 %75, 32
  %77 = load i32, ptr %11, align 4
  %78 = lshr i32 %77, 21
  %79 = add i32 %76, %78
  store i32 %79, ptr %5, align 4
  br label %80

80:                                               ; preds = %64, %36, %22
  %81 = load i32, ptr %5, align 4
  ret i32 %81
}

; Function Attrs: nounwind uwtable
define internal i32 @unicode_get_cc(i32 noundef %0) #0 {
  %2 = alloca i32, align 4
  %3 = alloca i32, align 4
  %4 = alloca i32, align 4
  %5 = alloca i32, align 4
  %6 = alloca i32, align 4
  %7 = alloca i32, align 4
  %8 = alloca i32, align 4
  %9 = alloca i32, align 4
  %10 = alloca i32, align 4
  %11 = alloca ptr, align 8
  store i32 %0, ptr %3, align 4
  %12 = load i32, ptr %3, align 4
  %13 = call i32 @get_index_pos(ptr noundef %4, i32 noundef %12, ptr noundef @unicode_cc_index, i32 noundef 29)
  store i32 %13, ptr %10, align 4
  %14 = load i32, ptr %10, align 4
  %15 = icmp slt i32 %14, 0
  br i1 %15, label %16, label %17

16:                                               ; preds = %1
  store i32 0, ptr %2, align 4
  br label %105

17:                                               ; preds = %1
  %18 = load i32, ptr %10, align 4
  %19 = sext i32 %18 to i64
  %20 = getelementptr i8, ptr @unicode_cc_table, i64 %19
  store ptr %20, ptr %11, align 8
  br label %21

21:                                               ; preds = %103, %17
  %22 = load ptr, ptr %11, align 8
  %23 = getelementptr i8, ptr %22, i32 1
  store ptr %23, ptr %11, align 8
  %24 = load i8, ptr %22, align 1
  %25 = zext i8 %24 to i32
  store i32 %25, ptr %9, align 4
  %26 = load i32, ptr %9, align 4
  %27 = lshr i32 %26, 6
  store i32 %27, ptr %6, align 4
  %28 = load i32, ptr %9, align 4
  %29 = and i32 %28, 63
  store i32 %29, ptr %5, align 4
  %30 = load i32, ptr %5, align 4
  %31 = icmp ult i32 %30, 48
  br i1 %31, label %32, label %33

32:                                               ; preds = %21
  br label %68

33:                                               ; preds = %21
  %34 = load i32, ptr %5, align 4
  %35 = icmp ult i32 %34, 56
  br i1 %35, label %36, label %48

36:                                               ; preds = %33
  %37 = load i32, ptr %5, align 4
  %38 = sub i32 %37, 48
  %39 = shl i32 %38, 8
  store i32 %39, ptr %5, align 4
  %40 = load ptr, ptr %11, align 8
  %41 = getelementptr i8, ptr %40, i32 1
  store ptr %41, ptr %11, align 8
  %42 = load i8, ptr %40, align 1
  %43 = zext i8 %42 to i32
  %44 = load i32, ptr %5, align 4
  %45 = or i32 %44, %43
  store i32 %45, ptr %5, align 4
  %46 = load i32, ptr %5, align 4
  %47 = add i32 %46, 48
  store i32 %47, ptr %5, align 4
  br label %67

48:                                               ; preds = %33
  %49 = load i32, ptr %5, align 4
  %50 = sub i32 %49, 56
  %51 = shl i32 %50, 8
  store i32 %51, ptr %5, align 4
  %52 = load ptr, ptr %11, align 8
  %53 = getelementptr i8, ptr %52, i32 1
  store ptr %53, ptr %11, align 8
  %54 = load i8, ptr %52, align 1
  %55 = zext i8 %54 to i32
  %56 = shl i32 %55, 8
  %57 = load i32, ptr %5, align 4
  %58 = or i32 %57, %56
  store i32 %58, ptr %5, align 4
  %59 = load ptr, ptr %11, align 8
  %60 = getelementptr i8, ptr %59, i32 1
  store ptr %60, ptr %11, align 8
  %61 = load i8, ptr %59, align 1
  %62 = zext i8 %61 to i32
  %63 = load i32, ptr %5, align 4
  %64 = or i32 %63, %62
  store i32 %64, ptr %5, align 4
  %65 = load i32, ptr %5, align 4
  %66 = add i32 %65, 2096
  store i32 %66, ptr %5, align 4
  br label %67

67:                                               ; preds = %48, %36
  br label %68

68:                                               ; preds = %67, %32
  %69 = load i32, ptr %6, align 4
  %70 = icmp ule i32 %69, 1
  br i1 %70, label %71, label %74

71:                                               ; preds = %68
  %72 = load ptr, ptr %11, align 8
  %73 = getelementptr i8, ptr %72, i32 1
  store ptr %73, ptr %11, align 8
  br label %74

74:                                               ; preds = %71, %68
  %75 = load i32, ptr %4, align 4
  %76 = load i32, ptr %5, align 4
  %77 = add i32 %75, %76
  %78 = add i32 %77, 1
  store i32 %78, ptr %8, align 4
  %79 = load i32, ptr %3, align 4
  %80 = load i32, ptr %8, align 4
  %81 = icmp ult i32 %79, %80
  br i1 %81, label %82, label %103

82:                                               ; preds = %74
  %83 = load i32, ptr %6, align 4
  switch i32 %83, label %99 [
    i32 0, label %84
    i32 1, label %89
    i32 2, label %98
    i32 3, label %100
  ]

84:                                               ; preds = %82
  %85 = load ptr, ptr %11, align 8
  %86 = getelementptr i8, ptr %85, i64 -1
  %87 = load i8, ptr %86, align 1
  %88 = zext i8 %87 to i32
  store i32 %88, ptr %7, align 4
  br label %101

89:                                               ; preds = %82
  %90 = load ptr, ptr %11, align 8
  %91 = getelementptr i8, ptr %90, i64 -1
  %92 = load i8, ptr %91, align 1
  %93 = zext i8 %92 to i32
  %94 = load i32, ptr %3, align 4
  %95 = add i32 %93, %94
  %96 = load i32, ptr %4, align 4
  %97 = sub i32 %95, %96
  store i32 %97, ptr %7, align 4
  br label %101

98:                                               ; preds = %82
  store i32 0, ptr %7, align 4
  br label %101

99:                                               ; preds = %82
  br label %100

100:                                              ; preds = %99, %82
  store i32 230, ptr %7, align 4
  br label %101

101:                                              ; preds = %100, %98, %89, %84
  %102 = load i32, ptr %7, align 4
  store i32 %102, ptr %2, align 4
  br label %105

103:                                              ; preds = %74
  %104 = load i32, ptr %8, align 4
  store i32 %104, ptr %4, align 4
  br label %21

105:                                              ; preds = %101, %16
  %106 = load i32, ptr %2, align 4
  ret i32 %106
}