; Function Attrs: nofree norecurse nosync nounwind memory(none) uwtable
define internal fastcc i32 @unicode_get_cc(i32 noundef %0) unnamed_addr #9 {
  %2 = icmp ult i32 %0, 845
  br i1 %2, label %get_index_pos.exit.thread41, label %3

3:                                                ; preds = %1
  %.not.i = icmp ult i32 %0, 125259
  br i1 %.not.i, label %.lr.ph.i, label %get_index_pos.exit.thread

.lr.ph.i:                                         ; preds = %3, %.lr.ph.i
  %.02741.i = phi i32 [ %..027.i, %.lr.ph.i ], [ 28, %3 ]
  %.02840.i = phi i32 [ %.028..i, %.lr.ph.i ], [ 0, %3 ]
  %4 = add i32 %.02840.i, %.02741.i
  %5 = sdiv i32 %4, 2
  %6 = mul i32 %5, 3
  %7 = sext i32 %6 to i64
  %8 = getelementptr i8, ptr @unicode_cc_index, i64 %7
  %.val34.i = load i16, ptr %8, align 2
  %9 = getelementptr i8, ptr %8, i64 2
  %.val35.i = load i8, ptr %9, align 1
  %10 = zext i16 %.val34.i to i32
  %11 = zext i8 %.val35.i to i32
  %12 = shl nuw nsw i32 %11, 16
  %.masked39.i = and i32 %12, 2031616
  %13 = or disjoint i32 %.masked39.i, %10
  %14 = icmp ugt i32 %13, %0
  %.028..i = select i1 %14, i32 %.02840.i, i32 %5
  %..027.i = select i1 %14, i32 %5, i32 %.02741.i
  %15 = sub i32 %..027.i, %.028..i
  %16 = icmp sgt i32 %15, 1
  br i1 %16, label %.lr.ph.i, label %get_index_pos.exit, !llvm.loop !13

get_index_pos.exit:                               ; preds = %.lr.ph.i
  %17 = mul i32 %.028..i, 3
  %18 = sext i32 %17 to i64
  %19 = getelementptr i8, ptr @unicode_cc_index, i64 %18
  %.val36.i = load i16, ptr %19, align 2
  %20 = getelementptr i8, ptr %19, i64 2
  %.val37.i = load i8, ptr %20, align 1
  %21 = zext i16 %.val36.i to i32
  %22 = zext i8 %.val37.i to i32
  %23 = shl nuw nsw i32 %22, 16
  %.masked38.i = and i32 %23, 2031616
  %24 = or disjoint i32 %.masked38.i, %21
  %25 = shl i32 %.028..i, 5
  %26 = add i32 %25, 32
  %27 = lshr i32 %22, 5
  %28 = or disjoint i32 %27, %26
  %29 = icmp slt i32 %28, 0
  br i1 %29, label %get_index_pos.exit.thread, label %get_index_pos.exit.thread41

get_index_pos.exit.thread41:                      ; preds = %1, %get_index_pos.exit
  %.0.i45 = phi i32 [ %28, %get_index_pos.exit ], [ 0, %1 ]
  %.03744 = phi i32 [ %24, %get_index_pos.exit ], [ 0, %1 ]
  %30 = zext nneg i32 %.0.i45 to i64
  %31 = getelementptr i8, ptr @unicode_cc_table, i64 %30
  br label %32

32:                                               ; preds = %57, %get_index_pos.exit.thread41
  %.138 = phi i32 [ %.03744, %get_index_pos.exit.thread41 ], [ %60, %57 ]
  %.0 = phi ptr [ %31, %get_index_pos.exit.thread41 ], [ %spec.select, %57 ]
  %33 = getelementptr i8, ptr %.0, i64 1
  %34 = load i8, ptr %.0, align 1
  %35 = zext i8 %34 to i32
  %36 = and i32 %35, 63
  %37 = icmp ult i32 %36, 48
  br i1 %37, label %57, label %38

38:                                               ; preds = %32
  %39 = icmp ult i32 %36, 56
  br i1 %39, label %40, label %45

40:                                               ; preds = %38
  %41 = shl nuw nsw i32 %36, 8
  %42 = getelementptr i8, ptr %.0, i64 2
  %43 = load i8, ptr %33, align 1
  %44 = zext i8 %43 to i32
  br label %.sink.split

45:                                               ; preds = %38
  %46 = getelementptr i8, ptr %.0, i64 2
  %47 = load i8, ptr %33, align 1
  %48 = zext i8 %47 to i32
  %49 = add nuw nsw i32 %36, 16777160
  %50 = or i32 %49, %48
  %51 = shl i32 %50, 8
  %52 = getelementptr i8, ptr %.0, i64 3
  %53 = load i8, ptr %46, align 1
  %54 = zext i8 %53 to i32
  br label %.sink.split

.sink.split:                                      ; preds = %45, %40
  %.sink49 = phi i32 [ -12240, %40 ], [ 2096, %45 ]
  %.sink48 = phi i32 [ %41, %40 ], [ %54, %45 ]
  %.sink47 = phi i32 [ %44, %40 ], [ %51, %45 ]
  %.1.ph = phi ptr [ %42, %40 ], [ %52, %45 ]
  %55 = add nsw i32 %.sink48, %.sink49
  %56 = add nuw nsw i32 %55, %.sink47
  br label %57

57:                                               ; preds = %.sink.split, %32
  %.030 = phi i32 [ %36, %32 ], [ %56, %.sink.split ]
  %.1 = phi ptr [ %33, %32 ], [ %.1.ph, %.sink.split ]
  %58 = icmp sgt i8 %34, -1
  %spec.select.idx = zext i1 %58 to i64
  %spec.select = getelementptr i8, ptr %.1, i64 %spec.select.idx
  %59 = add i32 %.138, 1
  %60 = add i32 %59, %.030
  %61 = icmp ugt i32 %60, %0
  br i1 %61, label %62, label %32

62:                                               ; preds = %57
  %63 = lshr i32 %35, 6
  switch i32 %63, label %74 [
    i32 0, label %64
    i32 1, label %68
    i32 2, label %get_index_pos.exit.thread
  ]

64:                                               ; preds = %62
  %65 = getelementptr i8, ptr %spec.select, i64 -1
  %66 = load i8, ptr %65, align 1
  %67 = zext i8 %66 to i32
  br label %get_index_pos.exit.thread

68:                                               ; preds = %62
  %69 = getelementptr i8, ptr %spec.select, i64 -1
  %70 = load i8, ptr %69, align 1
  %71 = zext i8 %70 to i32
  %72 = sub i32 %0, %.138
  %73 = add i32 %72, %71
  br label %get_index_pos.exit.thread

74:                                               ; preds = %62
  br label %get_index_pos.exit.thread

get_index_pos.exit.thread:                        ; preds = %3, %64, %68, %74, %62, %get_index_pos.exit
  %.029 = phi i32 [ 0, %get_index_pos.exit ], [ 230, %74 ], [ %73, %68 ], [ %67, %64 ], [ 0, %62 ], [ 0, %3 ]
  ret i32 %.029
}